; Function Attrs: mustprogress uwtable
define hidden void @_ZN4cvc58internal6theory2fp31FloatingPointToUBVTotalTypeRule14preComputeTypeEPNS0_11NodeManagerENS0_12NodeTemplateILb0EEE(ptr dead_on_unwind noalias writable sret(%"class.cvc5::internal::TypeNode") align 8 %0, ptr noundef %1, ptr noundef nonnull %2) local_unnamed_addr #3 align 2 personality ptr @__gxx_personality_v0 {
  %4 = alloca %"class.cvc5::internal::NodeTemplate.39", align 8
  call void @llvm.lifetime.start.p0(i64 8, ptr nonnull %4) #14
  call void @_ZNK4cvc58internal12NodeTemplateILb0EE11getOperatorEv(ptr dead_on_unwind nonnull writable sret(%"class.cvc5::internal::NodeTemplate.39") align 8 %4, ptr noundef nonnull align 8 dereferenceable(8) %2)
  %5 = load ptr, ptr %4, align 8, !tbaa !164
  %6 = invoke noundef nonnull align 4 dereferenceable(4) ptr @_ZNK4cvc58internal4expr9NodeValue8getConstINS0_23FloatingPointToUBVTotalEEERKT_v(ptr noundef nonnull align 8 dereferenceable(24) %5)
          to label %_ZNK4cvc58internal12NodeTemplateILb1EE8getConstINS0_23FloatingPointToUBVTotalEEERKT_v.exit unwind label %21

_ZNK4cvc58internal12NodeTemplateILb1EE8getConstINS0_23FloatingPointToUBVTotalEEERKT_v.exit: ; preds = %3
  %7 = load i32, ptr %6, align 4, !tbaa !254
  %8 = load ptr, ptr %4, align 8, !tbaa !164
  %9 = load i64, ptr %8, align 8
  %10 = and i64 %9, 1152920405095219200
  %.not.i.i = icmp eq i64 %10, 1152920405095219200
  br i1 %.not.i.i, label %_ZN4cvc58internal12NodeTemplateILb1EED2Ev.exit, label %11, !prof !15

11:                                               ; preds = %_ZNK4cvc58internal12NodeTemplateILb1EE8getConstINS0_23FloatingPointToUBVTotalEEERKT_v.exit
  %12 = add i64 %9, 1152920405095219200
  %13 = and i64 %12, 1152920405095219200
  %14 = and i64 %9, -1152920405095219201
  %15 = or disjoint i64 %13, %14
  store i64 %15, ptr %8, align 8
  %16 = icmp eq i64 %13, 0
  br i1 %16, label %17, label %_ZN4cvc58internal12NodeTemplateILb1EED2Ev.exit, !prof !15

17:                                               ; preds = %11
  invoke void @_ZN4cvc58internal4expr9NodeValue15markForDeletionEv(ptr noundef nonnull align 8 dereferenceable(24) %8)
          to label %_ZN4cvc58internal12NodeTemplateILb1EED2Ev.exit unwind label %18

18:                                               ; preds = %17
  %19 = landingpad { ptr, i32 }
          catch ptr null
  %20 = extractvalue { ptr, i32 } %19, 0
  call void @__clang_call_terminate(ptr %20) #15
  unreachable

_ZN4cvc58internal12NodeTemplateILb1EED2Ev.exit:   ; preds = %_ZNK4cvc58internal12NodeTemplateILb1EE8getConstINS0_23FloatingPointToUBVTotalEEERKT_v.exit, %11, %17
  call void @llvm.lifetime.end.p0(i64 8, ptr nonnull %4) #14
  call void @_ZN4cvc58internal11NodeManager15mkBitVectorTypeEj(ptr dead_on_unwind writable sret(%"class.cvc5::internal::TypeNode") align 8 %0, ptr noundef nonnull align 8 dereferenceable(3560) %1, i32 noundef %7)
  ret void

21:                                               ; preds = %3
  %22 = landingpad { ptr, i32 }
          cleanup
  call void @_ZN4cvc58internal12NodeTemplateILb1EED2Ev(ptr noundef nonnull align 8 dereferenceable(8) %4) #14
  call void @llvm.lifetime.end.p0(i64 8, ptr nonnull %4) #14
  resume { ptr, i32 } %22
}